target datalayout = "e-m:e-p270:32:32-p271:32:32-p272:64:64-i64:64-i128:128-f80:128-n8:16:32:64-S128"
target triple = "x86_64-pc-linux-gnu"

%struct.H5E_cls_t = type { i8, ptr, ptr, ptr }

@H5E_ERROR_g = global i64 -1, align 8
@H5E_CANTRELEASE_g = global i64 -1, align 8
@H5E_BADITER_g = global i64 -1, align 8
@H5E_init_g = external global i8, align 1
@H5_libterm_g = external global i8, align 1
@.str.1 = private unnamed_addr constant [100 x i8] c"generated/home/dtcxzyw/WorkSpace/Projects/compilers/llvm-opt-benchmark/bench/hdf5/hdf5/src/H5Eint.c\00", align 1
@.str.9 = private unnamed_addr constant [27 x i8] c"unable to free error class\00", align 1
@__func__.H5E__unregister_class = private unnamed_addr constant [22 x i8] c"H5E__unregister_class\00", align 1
@.str.18 = private unnamed_addr constant [48 x i8] c"unable to free all messages in this error class\00", align 1
@H5_H5E_cls_t_reg_free_list = internal global { i8, [3 x i8], i32, i32, [4 x i8], ptr, i64, ptr } { i8 0, [3 x i8] zeroinitializer, i32 0, i32 0, [4 x i8] zeroinitializer, ptr @.str.384, i64 32, ptr null }, align 8

; Function Attrs: nounwind uwtable
define internal i32 @H5E__free_class(ptr noundef %0) #0 {
  %2 = alloca ptr, align 8
  store ptr %0, ptr %2, align 8, !tbaa !32
  %3 = load i8, ptr @H5E_init_g, align 1, !tbaa !7, !range !9, !noundef !10
  %4 = trunc i8 %3 to i1
  br i1 %4, label %9, label %5

5:                                                ; preds = %1
  %6 = load i8, ptr @H5_libterm_g, align 1, !tbaa !7, !range !9, !noundef !10
  %7 = trunc i8 %6 to i1
  %8 = xor i1 %7, true
  br label %9

9:                                                ; preds = %5, %1
  %10 = phi i1 [ true, %1 ], [ %8, %5 ]
  %11 = xor i1 %10, true
  %12 = xor i1 %11, true
  %13 = zext i1 %12 to i32
  %14 = sext i32 %13 to i64
  %15 = call i64 @llvm.expect.i64(i64 %14, i64 1)
  %16 = icmp ne i64 %15, 0
  br i1 %16, label %17, label %44

17:                                               ; preds = %9
  %18 = load ptr, ptr %2, align 8, !tbaa !32
  %19 = getelementptr inbounds nuw %struct.H5E_cls_t, ptr %18, i32 0, i32 0
  %20 = load i8, ptr %19, align 8, !tbaa !34, !range !9, !noundef !10
  %21 = trunc i8 %20 to i1
  br i1 %21, label %22, label %43

22:                                               ; preds = %17
  %23 = load ptr, ptr %2, align 8, !tbaa !32
  %24 = getelementptr inbounds nuw %struct.H5E_cls_t, ptr %23, i32 0, i32 1
  %25 = load ptr, ptr %24, align 8, !tbaa !36
  %26 = call ptr @H5MM_xfree_const(ptr noundef %25)
  %27 = load ptr, ptr %2, align 8, !tbaa !32
  %28 = getelementptr inbounds nuw %struct.H5E_cls_t, ptr %27, i32 0, i32 1
  store ptr %26, ptr %28, align 8, !tbaa !36
  %29 = load ptr, ptr %2, align 8, !tbaa !32
  %30 = getelementptr inbounds nuw %struct.H5E_cls_t, ptr %29, i32 0, i32 2
  %31 = load ptr, ptr %30, align 8, !tbaa !37
  %32 = call ptr @H5MM_xfree_const(ptr noundef %31)
  %33 = load ptr, ptr %2, align 8, !tbaa !32
  %34 = getelementptr inbounds nuw %struct.H5E_cls_t, ptr %33, i32 0, i32 2
  store ptr %32, ptr %34, align 8, !tbaa !37
  %35 = load ptr, ptr %2, align 8, !tbaa !32
  %36 = getelementptr inbounds nuw %struct.H5E_cls_t, ptr %35, i32 0, i32 3
  %37 = load ptr, ptr %36, align 8, !tbaa !38
  %38 = call ptr @H5MM_xfree_const(ptr noundef %37)
  %39 = load ptr, ptr %2, align 8, !tbaa !32
  %40 = getelementptr inbounds nuw %struct.H5E_cls_t, ptr %39, i32 0, i32 3
  store ptr %38, ptr %40, align 8, !tbaa !38
  %41 = load ptr, ptr %2, align 8, !tbaa !32
  %42 = call ptr @H5FL_reg_free(ptr noundef @H5_H5E_cls_t_reg_free_list, ptr noundef %41)
  store ptr %42, ptr %2, align 8, !tbaa !32
  br label %43

43:                                               ; preds = %22, %17
  br label %44

44:                                               ; preds = %43, %9
  ret i32 0
}

; Function Attrs: nounwind uwtable
define internal i32 @H5E__unregister_class(ptr noundef %0, ptr noundef %1) #0 {
  %3 = alloca ptr, align 8
  %4 = alloca ptr, align 8
  %5 = alloca i32, align 4
  %6 = alloca i8, align 1
  store ptr %0, ptr %3, align 8, !tbaa !32
  store ptr %1, ptr %4, align 8, !tbaa !49
  call void @llvm.lifetime.start.p0(i64 4, ptr %5) #9
  store i32 0, ptr %5, align 4, !tbaa !3
  call void @llvm.lifetime.start.p0(i64 1, ptr %6) #9
  store i8 0, ptr %6, align 1, !tbaa !7
  %7 = load i8, ptr @H5E_init_g, align 1, !tbaa !7, !range !9, !noundef !10
  %8 = trunc i8 %7 to i1
  br i1 %8, label %13, label %9

9:                                                ; preds = %2
  %10 = load i8, ptr @H5_libterm_g, align 1, !tbaa !7, !range !9, !noundef !10
  %11 = trunc i8 %10 to i1
  %12 = xor i1 %11, true
  br label %13

13:                                               ; preds = %9, %2
  %14 = phi i1 [ true, %2 ], [ %12, %9 ]
  %15 = xor i1 %14, true
  %16 = xor i1 %15, true
  %17 = zext i1 %16 to i32
  %18 = sext i32 %17 to i64
  %19 = call i64 @llvm.expect.i64(i64 %18, i64 1)
  %20 = icmp ne i64 %19, 0
  br i1 %20, label %21, label %69

21:                                               ; preds = %13
  %22 = load ptr, ptr %3, align 8, !tbaa !32
  %23 = call i32 @H5I_iterate(i32 noundef 13, ptr noundef @H5E__close_msg_cb, ptr noundef %22, i1 noundef zeroext false)
  %24 = icmp slt i32 %23, 0
  br i1 %24, label %25, label %44

25:                                               ; preds = %21
  br label %26

26:                                               ; preds = %25
  br label %27

27:                                               ; preds = %26
  br label %28

28:                                               ; preds = %27
  %29 = load i64, ptr @H5E_ERROR_g, align 8, !tbaa !11
  %30 = load i64, ptr @H5E_BADITER_g, align 8, !tbaa !11
  %31 = call i32 (ptr, ptr, i32, i64, i64, ptr, ...) @H5E_printf_stack(ptr noundef @.str.1, ptr noundef @__func__.H5E__unregister_class, i32 noundef 533, i64 noundef %29, i64 noundef %30, ptr noundef @.str.18)
  br label %32

32:                                               ; preds = %28
  br label %33

33:                                               ; preds = %32
  store i8 1, ptr %6, align 1, !tbaa !7
  %34 = load i8, ptr %6, align 1, !tbaa !7, !range !9, !noundef !10
  %35 = trunc i8 %34 to i1
  %36 = zext i1 %35 to i8
  store i8 %36, ptr %6, align 1, !tbaa !7
  br label %37

37:                                               ; preds = %33
  br label %38

38:                                               ; preds = %37
  br label %39

39:                                               ; preds = %38
  store i32 -1, ptr %5, align 4, !tbaa !3
  br label %68

40:                                               ; No predecessors!
  br label %41

41:                                               ; preds = %40
  br label %42

42:                                               ; preds = %41
  br label %43

43:                                               ; preds = %42
  br label %44

44:                                               ; preds = %43, %21
  %45 = load ptr, ptr %3, align 8, !tbaa !32
  %46 = call i32 @H5E__free_class(ptr noundef %45)
  %47 = icmp slt i32 %46, 0
  br i1 %47, label %48, label %67

48:                                               ; preds = %44
  br label %49

49:                                               ; preds = %48
  br label %50

50:                                               ; preds = %49
  br label %51

51:                                               ; preds = %50
  %52 = load i64, ptr @H5E_ERROR_g, align 8, !tbaa !11
  %53 = load i64, ptr @H5E_CANTRELEASE_g, align 8, !tbaa !11
  %54 = call i32 (ptr, ptr, i32, i64, i64, ptr, ...) @H5E_printf_stack(ptr noundef @.str.1, ptr noundef @__func__.H5E__unregister_class, i32 noundef 537, i64 noundef %52, i64 noundef %53, ptr noundef @.str.9)
  br label %55

55:                                               ; preds = %51
  br label %56

56:                                               ; preds = %55
  store i8 1, ptr %6, align 1, !tbaa !7
  %57 = load i8, ptr %6, align 1, !tbaa !7, !range !9, !noundef !10
  %58 = trunc i8 %57 to i1
  %59 = zext i1 %58 to i8
  store i8 %59, ptr %6, align 1, !tbaa !7
  br label %60

60:                                               ; preds = %56
  br label %61

61:                                               ; preds = %60
  br label %62

62:                                               ; preds = %61
  store i32 -1, ptr %5, align 4, !tbaa !3
  br label %68

63:                                               ; No predecessors!
  br label %64

64:                                               ; preds = %63
  br label %65

65:                                               ; preds = %64
  br label %66

66:                                               ; preds = %65
  br label %67

67:                                               ; preds = %66, %44
  br label %68

68:                                               ; preds = %67, %62, %39
  br label %69

69:                                               ; preds = %68, %13
  %70 = load i32, ptr %5, align 4, !tbaa !3
  call void @llvm.lifetime.end.p0(i64 1, ptr %6) #9
  call void @llvm.lifetime.end.p0(i64 4, ptr %5) #9
  ret i32 %70
}