; Function Attrs: nounwind uwtable
define internal range(i32 -1, 1) i32 @H5E__unregister_class(ptr noundef %0, ptr readnone captures(none) %1) #0 {
  %3 = load i8, ptr @H5E_init_g, align 1, !tbaa !3, !range !7, !noundef !8
  %4 = trunc nuw i8 %3 to i1
  %5 = load i8, ptr @H5_libterm_g, align 1, !range !7
  %6 = trunc nuw i8 %5 to i1
  %7 = xor i1 %6, true
  %8 = select i1 %4, i1 true, i1 %7
  br i1 %8, label %9, label %H5E__free_class.exit, !prof !9

9:                                                ; preds = %2
  %10 = tail call i32 @H5I_iterate(i32 noundef 13, ptr noundef nonnull @H5E__close_msg_cb, ptr noundef %0, i1 noundef zeroext false) #16
  %11 = icmp slt i32 %10, 0
  br i1 %11, label %12, label %16

12:                                               ; preds = %9
  %13 = load i64, ptr @H5E_ERROR_g, align 8, !tbaa !10
  %14 = load i64, ptr @H5E_BADITER_g, align 8, !tbaa !10
  %15 = tail call i32 (ptr, ptr, i32, i64, i64, ptr, ...) @H5E_printf_stack(ptr noundef nonnull @.str.1, ptr noundef nonnull @__func__.H5E__unregister_class, i32 noundef 533, i64 noundef %13, i64 noundef %14, ptr noundef nonnull @.str.18)
  br label %H5E__free_class.exit

16:                                               ; preds = %9
  %17 = load i8, ptr @H5E_init_g, align 1, !tbaa !3, !range !7, !noundef !8
  %18 = trunc nuw i8 %17 to i1
  %19 = load i8, ptr @H5_libterm_g, align 1, !range !7
  %20 = trunc nuw i8 %19 to i1
  %21 = xor i1 %20, true
  %22 = select i1 %18, i1 true, i1 %21
  br i1 %22, label %23, label %H5E__free_class.exit, !prof !9

23:                                               ; preds = %16
  %24 = load i8, ptr %0, align 8, !tbaa !38, !range !7, !noundef !8
  %25 = trunc nuw i8 %24 to i1
  br i1 %25, label %26, label %H5E__free_class.exit

26:                                               ; preds = %23
  %27 = getelementptr inbounds nuw i8, ptr %0, i64 8
  %28 = load ptr, ptr %27, align 8, !tbaa !40
  %29 = tail call ptr @H5MM_xfree_const(ptr noundef %28) #16
  store ptr %29, ptr %27, align 8, !tbaa !40
  %30 = getelementptr inbounds nuw i8, ptr %0, i64 16
  %31 = load ptr, ptr %30, align 8, !tbaa !41
  %32 = tail call ptr @H5MM_xfree_const(ptr noundef %31) #16
  store ptr %32, ptr %30, align 8, !tbaa !41
  %33 = getelementptr inbounds nuw i8, ptr %0, i64 24
  %34 = load ptr, ptr %33, align 8, !tbaa !42
  %35 = tail call ptr @H5MM_xfree_const(ptr noundef %34) #16
  store ptr %35, ptr %33, align 8, !tbaa !42
  %36 = tail call ptr @H5FL_reg_free(ptr noundef nonnull @H5_H5E_cls_t_reg_free_list, ptr noundef nonnull %0) #16
  br label %H5E__free_class.exit

H5E__free_class.exit:                             ; preds = %26, %23, %16, %12, %2
  %.0 = phi i32 [ -1, %12 ], [ 0, %2 ], [ 0, %16 ], [ 0, %23 ], [ 0, %26 ]
  ret i32 %.0
}